target datalayout = "e-m:e-p270:32:32-p271:32:32-p272:64:64-i64:64-i128:128-f80:128-n8:16:32:64-S128"
target triple = "x86_64-pc-linux-gnu"

%"class.net::SpdyFramerVisitorAdapter" = type { %"class.net::SpdyFramerVisitorInterface", ptr, ptr }
%"class.net::SpdyFramerVisitorInterface" = type { ptr }

; Function Attrs: mustprogress uwtable
define void @_ZN3net24SpdyFramerVisitorAdapter9OnHeadersEjbijbbb(ptr noundef nonnull align 8 dereferenceable(24) %0, i32 noundef %1, i1 noundef zeroext %2, i32 noundef %3, i32 noundef %4, i1 noundef zeroext %5, i1 noundef zeroext %6, i1 noundef zeroext %7) unnamed_addr #2 align 2 {
  %9 = alloca ptr, align 8
  %10 = alloca i32, align 4
  %11 = alloca i8, align 1
  %12 = alloca i32, align 4
  %13 = alloca i32, align 4
  %14 = alloca i8, align 1
  %15 = alloca i8, align 1
  %16 = alloca i8, align 1
  store ptr %0, ptr %9, align 8, !tbaa !22
  store i32 %1, ptr %10, align 4, !tbaa !30
  %17 = zext i1 %2 to i8
  store i8 %17, ptr %11, align 1, !tbaa !19
  store i32 %3, ptr %12, align 4, !tbaa !30
  store i32 %4, ptr %13, align 4, !tbaa !30
  %18 = zext i1 %5 to i8
  store i8 %18, ptr %14, align 1, !tbaa !19
  %19 = zext i1 %6 to i8
  store i8 %19, ptr %15, align 1, !tbaa !19
  %20 = zext i1 %7 to i8
  store i8 %20, ptr %16, align 1, !tbaa !19
  %21 = load ptr, ptr %9, align 8
  %22 = getelementptr inbounds nuw %"class.net::SpdyFramerVisitorAdapter", ptr %21, i32 0, i32 1
  %23 = load ptr, ptr %22, align 8, !tbaa !26
  %24 = load i32, ptr %10, align 4, !tbaa !30
  %25 = load i8, ptr %11, align 1, !tbaa !19, !range !20, !noundef !21
  %26 = trunc i8 %25 to i1
  %27 = load i32, ptr %12, align 4, !tbaa !30
  %28 = load i32, ptr %13, align 4, !tbaa !30
  %29 = load i8, ptr %14, align 1, !tbaa !19, !range !20, !noundef !21
  %30 = trunc i8 %29 to i1
  %31 = load i8, ptr %15, align 1, !tbaa !19, !range !20, !noundef !21
  %32 = trunc i8 %31 to i1
  %33 = load i8, ptr %16, align 1, !tbaa !19, !range !20, !noundef !21
  %34 = trunc i8 %33 to i1
  %35 = load ptr, ptr %23, align 8, !tbaa !8
  %36 = getelementptr inbounds ptr, ptr %35, i64 20
  %37 = load ptr, ptr %36, align 8
  call void %37(ptr noundef nonnull align 8 dereferenceable(8) %23, i32 noundef %24, i1 noundef zeroext %26, i32 noundef %27, i32 noundef %28, i1 noundef zeroext %30, i1 noundef zeroext %32, i1 noundef zeroext %34)
  ret void
}