; Function Attrs: mustprogress uwtable
define void @_ZN3net24SpdyFramerVisitorAdapter9OnHeadersEjbijbbb(ptr noundef nonnull readonly align 8 captures(none) dereferenceable(24) %0, i32 noundef %1, i1 noundef zeroext %2, i32 noundef %3, i32 noundef %4, i1 noundef zeroext %5, i1 noundef zeroext %6, i1 noundef zeroext %7) unnamed_addr #3 align 2 {
  %9 = getelementptr inbounds nuw i8, ptr %0, i64 8
  %10 = load ptr, ptr %9, align 8, !tbaa !15
  %11 = load ptr, ptr %10, align 8, !tbaa !3
  %12 = getelementptr inbounds nuw i8, ptr %11, i64 160
  %13 = load ptr, ptr %12, align 8
  tail call void %13(ptr noundef nonnull align 8 dereferenceable(8) %10, i32 noundef %1, i1 noundef zeroext %2, i32 noundef %3, i32 noundef %4, i1 noundef zeroext %5, i1 noundef zeroext %6, i1 noundef zeroext %7)
  ret void
}